target datalayout = "e-m:e-p270:32:32-p271:32:32-p272:64:64-i64:64-i128:128-f80:128-n8:16:32:64-S128"
target triple = "x86_64-pc-linux-gnu"

%struct.ossl_cmp_msg_st = type { ptr, ptr, ptr, ptr, ptr, ptr }
%struct.ossl_cmp_pkibody_st = type { i32, %union.anon }
%union.anon = type { ptr }
%struct.ossl_cmp_ctx_st = type { ptr, ptr, ptr, i32, ptr, ptr, ptr, ptr, ptr, i32, ptr, ptr, i32, i32, i32, i32, i64, ptr, ptr, i32, i32, ptr, ptr, ptr, ptr, ptr, i32, i32, i32, ptr, ptr, ptr, ptr, ptr, i64, ptr, i32, i32, ptr, ptr, ptr, ptr, ptr, ptr, ptr, ptr, i32, i32, ptr, ptr, i32, ptr, ptr, i32, ptr, ptr, i32, i32, ptr, ptr, i32, i32, ptr, ptr, i32, ptr, i32, ptr, i32, ptr, ptr, ptr, ptr, ptr, ptr }
%struct.ossl_cmp_certresponse_st = type { ptr, ptr, ptr, ptr }
%struct.ossl_cmp_certifiedkeypair_st = type { ptr, ptr, ptr }
%struct.ossl_cmp_certorenccert_st = type { i32, %union.anon.0 }
%union.anon.0 = type { ptr }
%struct.ossl_cmp_certrepmessage_st = type { ptr, ptr }

@.str = private unnamed_addr constant [32 x i8] c"../openssl/crypto/cmp/cmp_msg.c\00", align 1
@__func__.ossl_cmp_certrep_new = private unnamed_addr constant [21 x i8] c"ossl_cmp_certrep_new\00", align 1

; Function Attrs: nounwind uwtable
define void @OSSL_CMP_MSG_free(ptr noundef %0) #0 {
  %2 = alloca ptr, align 8
  store ptr %0, ptr %2, align 8, !tbaa !10
  %3 = load ptr, ptr %2, align 8, !tbaa !10
  %4 = call ptr @OSSL_CMP_MSG_it()
  call void @ASN1_item_free(ptr noundef %3, ptr noundef %4)
  ret void
}

; Function Attrs: inlinehint nounwind uwtable
define internal ptr @ossl_check_const_X509_sk_type(ptr noundef %0) #4 {
  %2 = alloca ptr, align 8
  store ptr %0, ptr %2, align 8, !tbaa !84
  %3 = load ptr, ptr %2, align 8, !tbaa !84
  ret ptr %3
}

; Function Attrs: inlinehint nounwind uwtable
define internal ptr @ossl_check_OSSL_CMP_CERTRESPONSE_type(ptr noundef %0) #4 {
  %2 = alloca ptr, align 8
  store ptr %0, ptr %2, align 8, !tbaa !87
  %3 = load ptr, ptr %2, align 8, !tbaa !87
  ret ptr %3
}

; Function Attrs: inlinehint nounwind uwtable
define internal ptr @ossl_check_OSSL_CMP_CERTRESPONSE_sk_type(ptr noundef %0) #4 {
  %2 = alloca ptr, align 8
  store ptr %0, ptr %2, align 8, !tbaa !116
  %3 = load ptr, ptr %2, align 8, !tbaa !116
  ret ptr %3
}

; Function Attrs: nounwind uwtable
define ptr @ossl_cmp_certrep_new(ptr noundef %0, i32 noundef %1, i32 noundef %2, ptr noundef %3, ptr noundef %4, ptr noundef %5, ptr noundef %6, ptr noundef %7, ptr noundef %8, i32 noundef %9) #0 {
  %11 = alloca ptr, align 8
  %12 = alloca ptr, align 8
  %13 = alloca i32, align 4
  %14 = alloca i32, align 4
  %15 = alloca ptr, align 8
  %16 = alloca ptr, align 8
  %17 = alloca ptr, align 8
  %18 = alloca ptr, align 8
  %19 = alloca ptr, align 8
  %20 = alloca ptr, align 8
  %21 = alloca i32, align 4
  %22 = alloca ptr, align 8
  %23 = alloca ptr, align 8
  %24 = alloca ptr, align 8
  %25 = alloca i32, align 4
  %26 = alloca i32, align 4
  store ptr %0, ptr %12, align 8, !tbaa !34
  store i32 %1, ptr %13, align 4, !tbaa !20
  store i32 %2, ptr %14, align 4, !tbaa !20
  store ptr %3, ptr %15, align 8, !tbaa !82
  store ptr %4, ptr %16, align 8, !tbaa !56
  store ptr %5, ptr %17, align 8, !tbaa !57
  store ptr %6, ptr %18, align 8, !tbaa !56
  store ptr %7, ptr %19, align 8, !tbaa !84
  store ptr %8, ptr %20, align 8, !tbaa !84
  store i32 %9, ptr %21, align 4, !tbaa !20
  call void @llvm.lifetime.start.p0(i64 8, ptr %22) #6
  store ptr null, ptr %22, align 8, !tbaa !10
  call void @llvm.lifetime.start.p0(i64 8, ptr %23) #6
  store ptr null, ptr %23, align 8, !tbaa !85
  call void @llvm.lifetime.start.p0(i64 8, ptr %24) #6
  store ptr null, ptr %24, align 8, !tbaa !87
  call void @llvm.lifetime.start.p0(i64 4, ptr %25) #6
  store i32 -1, ptr %25, align 4, !tbaa !20
  %27 = load ptr, ptr %12, align 8, !tbaa !34
  %28 = icmp ne ptr %27, null
  br i1 %28, label %29, label %32

29:                                               ; preds = %10
  %30 = load ptr, ptr %15, align 8, !tbaa !82
  %31 = icmp ne ptr %30, null
  br label %32

32:                                               ; preds = %29, %10
  %33 = phi i1 [ false, %10 ], [ %31, %29 ]
  %34 = zext i1 %33 to i32
  %35 = icmp ne i32 %34, 0
  %36 = xor i1 %35, true
  %37 = xor i1 %36, true
  %38 = zext i1 %37 to i32
  %39 = sext i32 %38 to i64
  %40 = call i64 @llvm.expect.i64(i64 %39, i64 1)
  %41 = icmp ne i64 %40, 0
  br i1 %41, label %43, label %42

42:                                               ; preds = %32
  store ptr null, ptr %11, align 8
  store i32 1, ptr %26, align 4
  br label %198

43:                                               ; preds = %32
  %44 = load ptr, ptr %12, align 8, !tbaa !34
  %45 = load i32, ptr %13, align 4, !tbaa !20
  %46 = call ptr @ossl_cmp_msg_create(ptr noundef %44, i32 noundef %45)
  store ptr %46, ptr %22, align 8, !tbaa !10
  %47 = icmp eq ptr %46, null
  br i1 %47, label %48, label %49

48:                                               ; preds = %43
  br label %195

49:                                               ; preds = %43
  %50 = load ptr, ptr %22, align 8, !tbaa !10
  %51 = getelementptr inbounds nuw %struct.ossl_cmp_msg_st, ptr %50, i32 0, i32 1
  %52 = load ptr, ptr %51, align 8, !tbaa !22
  %53 = getelementptr inbounds nuw %struct.ossl_cmp_pkibody_st, ptr %52, i32 0, i32 1
  %54 = load ptr, ptr %53, align 8, !tbaa !25
  store ptr %54, ptr %23, align 8, !tbaa !85
  %55 = load ptr, ptr %12, align 8, !tbaa !34
  %56 = getelementptr inbounds nuw %struct.ossl_cmp_ctx_st, ptr %55, i32 0, i32 46
  %57 = load i32, ptr %56, align 8, !tbaa !79
  %58 = icmp ne i32 %57, 0
  br i1 %58, label %59, label %66

59:                                               ; preds = %49
  %60 = load ptr, ptr %22, align 8, !tbaa !10
  %61 = getelementptr inbounds nuw %struct.ossl_cmp_msg_st, ptr %60, i32 0, i32 0
  %62 = load ptr, ptr %61, align 8, !tbaa !19
  %63 = call i32 @ossl_cmp_hdr_set_implicitConfirm(ptr noundef %62)
  %64 = icmp ne i32 %63, 0
  br i1 %64, label %66, label %65

65:                                               ; preds = %59
  br label %195

66:                                               ; preds = %59, %49
  %67 = call ptr @OSSL_CMP_CERTRESPONSE_new()
  store ptr %67, ptr %24, align 8, !tbaa !87
  %68 = icmp eq ptr %67, null
  br i1 %68, label %69, label %70

69:                                               ; preds = %66
  br label %195

70:                                               ; preds = %66
  %71 = load ptr, ptr %24, align 8, !tbaa !87
  %72 = getelementptr inbounds nuw %struct.ossl_cmp_certresponse_st, ptr %71, i32 0, i32 1
  %73 = load ptr, ptr %72, align 8, !tbaa !89
  call void @OSSL_CMP_PKISI_free(ptr noundef %73)
  %74 = load ptr, ptr %15, align 8, !tbaa !82
  %75 = call ptr @OSSL_CMP_PKISI_dup(ptr noundef %74)
  %76 = load ptr, ptr %24, align 8, !tbaa !87
  %77 = getelementptr inbounds nuw %struct.ossl_cmp_certresponse_st, ptr %76, i32 0, i32 1
  store ptr %75, ptr %77, align 8, !tbaa !89
  %78 = icmp eq ptr %75, null
  br i1 %78, label %87, label %79

79:                                               ; preds = %70
  %80 = load ptr, ptr %24, align 8, !tbaa !87
  %81 = getelementptr inbounds nuw %struct.ossl_cmp_certresponse_st, ptr %80, i32 0, i32 0
  %82 = load ptr, ptr %81, align 8, !tbaa !92
  %83 = load i32, ptr %14, align 4, !tbaa !20
  %84 = sext i32 %83 to i64
  %85 = call i32 @ASN1_INTEGER_set(ptr noundef %82, i64 noundef %84)
  %86 = icmp ne i32 %85, 0
  br i1 %86, label %88, label %87

87:                                               ; preds = %79, %70
  br label %195

88:                                               ; preds = %79
  %89 = load ptr, ptr %24, align 8, !tbaa !87
  %90 = getelementptr inbounds nuw %struct.ossl_cmp_certresponse_st, ptr %89, i32 0, i32 1
  %91 = load ptr, ptr %90, align 8, !tbaa !89
  %92 = call i32 @ossl_cmp_pkisi_get_status(ptr noundef %91)
  store i32 %92, ptr %25, align 4, !tbaa !20
  %93 = load i32, ptr %25, align 4, !tbaa !20
  %94 = icmp ne i32 %93, 2
  br i1 %94, label %95, label %144

95:                                               ; preds = %88
  %96 = load i32, ptr %25, align 4, !tbaa !20
  %97 = icmp ne i32 %96, 3
  br i1 %97, label %98, label %144

98:                                               ; preds = %95
  %99 = load ptr, ptr %16, align 8, !tbaa !56
  %100 = icmp ne ptr %99, null
  br i1 %100, label %101, label %144

101:                                              ; preds = %98
  %102 = load ptr, ptr %18, align 8, !tbaa !56
  %103 = icmp ne ptr %102, null
  br i1 %103, label %104, label %105

104:                                              ; preds = %101
  call void @ERR_new()
  call void @ERR_set_debug(ptr noundef @.str, i32 noundef 527, ptr noundef @__func__.ossl_cmp_certrep_new)
  call void (i32, i32, ptr, ...) @ERR_set_error(i32 noundef 58, i32 noundef 524556, ptr noundef null)
  br label %195

105:                                              ; preds = %101
  %106 = call ptr @OSSL_CMP_CERTIFIEDKEYPAIR_new()
  %107 = load ptr, ptr %24, align 8, !tbaa !87
  %108 = getelementptr inbounds nuw %struct.ossl_cmp_certresponse_st, ptr %107, i32 0, i32 2
  store ptr %106, ptr %108, align 8, !tbaa !93
  %109 = icmp eq ptr %106, null
  br i1 %109, label %110, label %111

110:                                              ; preds = %105
  br label %195

111:                                              ; preds = %105
  %112 = load ptr, ptr %24, align 8, !tbaa !87
  %113 = getelementptr inbounds nuw %struct.ossl_cmp_certresponse_st, ptr %112, i32 0, i32 2
  %114 = load ptr, ptr %113, align 8, !tbaa !93
  %115 = getelementptr inbounds nuw %struct.ossl_cmp_certifiedkeypair_st, ptr %114, i32 0, i32 0
  %116 = load ptr, ptr %115, align 8, !tbaa !94
  %117 = getelementptr inbounds nuw %struct.ossl_cmp_certorenccert_st, ptr %116, i32 0, i32 0
  store i32 0, ptr %117, align 8, !tbaa !99
  %118 = load ptr, ptr %16, align 8, !tbaa !56
  %119 = call i32 @X509_up_ref(ptr noundef %118)
  %120 = icmp ne i32 %119, 0
  br i1 %120, label %122, label %121

121:                                              ; preds = %111
  br label %195

122:                                              ; preds = %111
  %123 = load ptr, ptr %16, align 8, !tbaa !56
  %124 = load ptr, ptr %24, align 8, !tbaa !87
  %125 = getelementptr inbounds nuw %struct.ossl_cmp_certresponse_st, ptr %124, i32 0, i32 2
  %126 = load ptr, ptr %125, align 8, !tbaa !93
  %127 = getelementptr inbounds nuw %struct.ossl_cmp_certifiedkeypair_st, ptr %126, i32 0, i32 0
  %128 = load ptr, ptr %127, align 8, !tbaa !94
  %129 = getelementptr inbounds nuw %struct.ossl_cmp_certorenccert_st, ptr %128, i32 0, i32 1
  store ptr %123, ptr %129, align 8, !tbaa !25
  %130 = load ptr, ptr %17, align 8, !tbaa !57
  %131 = icmp ne ptr %130, null
  br i1 %131, label %132, label %143

132:                                              ; preds = %122
  %133 = load ptr, ptr %12, align 8, !tbaa !34
  %134 = load ptr, ptr %17, align 8, !tbaa !57
  %135 = call ptr @enc_privkey(ptr noundef %133, ptr noundef %134)
  %136 = load ptr, ptr %24, align 8, !tbaa !87
  %137 = getelementptr inbounds nuw %struct.ossl_cmp_certresponse_st, ptr %136, i32 0, i32 2
  %138 = load ptr, ptr %137, align 8, !tbaa !93
  %139 = getelementptr inbounds nuw %struct.ossl_cmp_certifiedkeypair_st, ptr %138, i32 0, i32 1
  store ptr %135, ptr %139, align 8, !tbaa !101
  %140 = icmp eq ptr %135, null
  br i1 %140, label %141, label %142

141:                                              ; preds = %132
  br label %195

142:                                              ; preds = %132
  br label %143

143:                                              ; preds = %142, %122
  br label %144

144:                                              ; preds = %143, %98, %95, %88
  %145 = load ptr, ptr %23, align 8, !tbaa !85
  %146 = getelementptr inbounds nuw %struct.ossl_cmp_certrepmessage_st, ptr %145, i32 0, i32 1
  %147 = load ptr, ptr %146, align 8, !tbaa !102
  %148 = call ptr @ossl_check_OSSL_CMP_CERTRESPONSE_sk_type(ptr noundef %147)
  %149 = load ptr, ptr %24, align 8, !tbaa !87
  %150 = call ptr @ossl_check_OSSL_CMP_CERTRESPONSE_type(ptr noundef %149)
  %151 = call i32 @OPENSSL_sk_push(ptr noundef %148, ptr noundef %150)
  %152 = icmp ne i32 %151, 0
  br i1 %152, label %154, label %153

153:                                              ; preds = %144
  br label %195

154:                                              ; preds = %144
  store ptr null, ptr %24, align 8, !tbaa !87
  %155 = load i32, ptr %13, align 4, !tbaa !20
  %156 = icmp eq i32 %155, 1
  br i1 %156, label %157, label %167

157:                                              ; preds = %154
  %158 = load ptr, ptr %20, align 8, !tbaa !84
  %159 = icmp ne ptr %158, null
  br i1 %159, label %160, label %167

160:                                              ; preds = %157
  %161 = load ptr, ptr %20, align 8, !tbaa !84
  %162 = call ptr @X509_chain_up_ref(ptr noundef %161)
  %163 = load ptr, ptr %23, align 8, !tbaa !85
  %164 = getelementptr inbounds nuw %struct.ossl_cmp_certrepmessage_st, ptr %163, i32 0, i32 0
  store ptr %162, ptr %164, align 8, !tbaa !105
  %165 = icmp eq ptr %162, null
  br i1 %165, label %166, label %167

166:                                              ; preds = %160
  br label %195

167:                                              ; preds = %160, %157, %154
  %168 = load ptr, ptr %19, align 8, !tbaa !84
  %169 = call ptr @ossl_check_const_X509_sk_type(ptr noundef %168)
  %170 = call i32 @OPENSSL_sk_num(ptr noundef %169)
  %171 = icmp sgt i32 %170, 0
  br i1 %171, label %172, label %179

172:                                              ; preds = %167
  %173 = load ptr, ptr %22, align 8, !tbaa !10
  %174 = getelementptr inbounds nuw %struct.ossl_cmp_msg_st, ptr %173, i32 0, i32 3
  %175 = load ptr, ptr %19, align 8, !tbaa !84
  %176 = call i32 @ossl_x509_add_certs_new(ptr noundef %174, ptr noundef %175, i32 noundef 5)
  %177 = icmp ne i32 %176, 0
  br i1 %177, label %179, label %178

178:                                              ; preds = %172
  br label %195

179:                                              ; preds = %172, %167
  %180 = load i32, ptr %21, align 4, !tbaa !20
  %181 = icmp ne i32 %180, 0
  br i1 %181, label %182, label %186

182:                                              ; preds = %179
  %183 = load ptr, ptr %15, align 8, !tbaa !82
  %184 = call i32 @ossl_cmp_pkisi_get_status(ptr noundef %183)
  %185 = icmp ne i32 %184, 2
  br i1 %185, label %186, label %193

186:                                              ; preds = %182, %179
  %187 = load ptr, ptr %12, align 8, !tbaa !34
  %188 = load ptr, ptr %22, align 8, !tbaa !10
  %189 = call i32 @ossl_cmp_msg_protect(ptr noundef %187, ptr noundef %188)
  %190 = icmp ne i32 %189, 0
  br i1 %190, label %192, label %191

191:                                              ; preds = %186
  br label %195

192:                                              ; preds = %186
  br label %193

193:                                              ; preds = %192, %182
  %194 = load ptr, ptr %22, align 8, !tbaa !10
  store ptr %194, ptr %11, align 8
  store i32 1, ptr %26, align 4
  br label %198

195:                                              ; preds = %191, %178, %166, %153, %141, %121, %110, %104, %87, %69, %65, %48
  call void @ERR_new()
  call void @ERR_set_debug(ptr noundef @.str, i32 noundef 571, ptr noundef @__func__.ossl_cmp_certrep_new)
  call void (i32, i32, ptr, ...) @ERR_set_error(i32 noundef 58, i32 noundef 117, ptr noundef null)
  %196 = load ptr, ptr %24, align 8, !tbaa !87
  call void @OSSL_CMP_CERTRESPONSE_free(ptr noundef %196)
  %197 = load ptr, ptr %22, align 8, !tbaa !10
  call void @OSSL_CMP_MSG_free(ptr noundef %197)
  store ptr null, ptr %11, align 8
  store i32 1, ptr %26, align 4
  br label %198

198:                                              ; preds = %195, %193, %42
  call void @llvm.lifetime.end.p0(i64 4, ptr %25) #6
  call void @llvm.lifetime.end.p0(i64 8, ptr %24) #6
  call void @llvm.lifetime.end.p0(i64 8, ptr %23) #6
  call void @llvm.lifetime.end.p0(i64 8, ptr %22) #6
  %199 = load ptr, ptr %11, align 8
  ret ptr %199
}