; Function Attrs: nounwind uwtable
define ptr @ossl_cmp_certrep_new(ptr noundef %0, i32 noundef %1, i32 noundef %2, ptr noundef %3, ptr noundef %4, ptr noundef %5, ptr noundef readnone captures(address_is_null) %6, ptr noundef %7, ptr noundef %8, i32 noundef %9) local_unnamed_addr #0 {
  %11 = icmp ne ptr %0, null
  %12 = icmp ne ptr %3, null
  %13 = and i1 %11, %12
  br i1 %13, label %14, label %85, !prof !56

14:                                               ; preds = %10
  %15 = tail call ptr @ossl_cmp_msg_create(ptr noundef nonnull %0, i32 noundef %1)
  %16 = icmp eq ptr %15, null
  br i1 %16, label %83, label %17

17:                                               ; preds = %14
  %18 = getelementptr inbounds nuw i8, ptr %15, i64 8
  %19 = load ptr, ptr %18, align 8, !tbaa !17
  %20 = getelementptr inbounds nuw i8, ptr %19, i64 8
  %21 = load ptr, ptr %20, align 8, !tbaa !22
  %22 = getelementptr inbounds nuw i8, ptr %0, i64 328
  %23 = load i32, ptr %22, align 8, !tbaa !53
  %.not = icmp eq i32 %23, 0
  br i1 %.not, label %27, label %24

24:                                               ; preds = %17
  %25 = load ptr, ptr %15, align 8, !tbaa !15
  %26 = tail call i32 @ossl_cmp_hdr_set_implicitConfirm(ptr noundef %25) #7
  %.not56 = icmp eq i32 %26, 0
  br i1 %.not56, label %83, label %27

27:                                               ; preds = %24, %17
  %28 = tail call ptr @OSSL_CMP_CERTRESPONSE_new() #7
  %29 = icmp eq ptr %28, null
  br i1 %29, label %83, label %30

30:                                               ; preds = %27
  %31 = getelementptr inbounds nuw i8, ptr %28, i64 8
  %32 = load ptr, ptr %31, align 8, !tbaa !57
  tail call void @OSSL_CMP_PKISI_free(ptr noundef %32) #7
  %33 = tail call ptr @OSSL_CMP_PKISI_dup(ptr noundef nonnull %3) #7
  store ptr %33, ptr %31, align 8, !tbaa !57
  %34 = icmp eq ptr %33, null
  br i1 %34, label %83, label %35

35:                                               ; preds = %30
  %36 = load ptr, ptr %28, align 8, !tbaa !61
  %37 = sext i32 %2 to i64
  %38 = tail call i32 @ASN1_INTEGER_set(ptr noundef %36, i64 noundef %37) #7
  %.not57 = icmp eq i32 %38, 0
  br i1 %.not57, label %83, label %39

39:                                               ; preds = %35
  %40 = load ptr, ptr %31, align 8, !tbaa !57
  %41 = tail call i32 @ossl_cmp_pkisi_get_status(ptr noundef %40) #7
  %42 = add i32 %41, -4
  %or.cond = icmp ult i32 %42, -2
  %43 = icmp ne ptr %4, null
  %or.cond3 = and i1 %43, %or.cond
  br i1 %or.cond3, label %44, label %62

44:                                               ; preds = %39
  %.not58 = icmp eq ptr %6, null
  br i1 %.not58, label %46, label %45

45:                                               ; preds = %44
  tail call void @ERR_new() #7
  tail call void @ERR_set_debug(ptr noundef nonnull @.str, i32 noundef 527, ptr noundef nonnull @__func__.ossl_cmp_certrep_new) #7
  tail call void (i32, i32, ptr, ...) @ERR_set_error(i32 noundef 58, i32 noundef 524556, ptr noundef null) #7
  br label %83

46:                                               ; preds = %44
  %47 = tail call ptr @OSSL_CMP_CERTIFIEDKEYPAIR_new() #7
  %48 = getelementptr inbounds nuw i8, ptr %28, i64 16
  store ptr %47, ptr %48, align 8, !tbaa !62
  %49 = icmp eq ptr %47, null
  br i1 %49, label %83, label %50

50:                                               ; preds = %46
  %51 = load ptr, ptr %47, align 8, !tbaa !63
  store i32 0, ptr %51, align 8, !tbaa !68
  %52 = tail call i32 @X509_up_ref(ptr noundef nonnull %4) #7
  %.not59 = icmp eq i32 %52, 0
  br i1 %.not59, label %83, label %53

53:                                               ; preds = %50
  %54 = load ptr, ptr %48, align 8, !tbaa !62
  %55 = load ptr, ptr %54, align 8, !tbaa !63
  %56 = getelementptr inbounds nuw i8, ptr %55, i64 8
  store ptr %4, ptr %56, align 8, !tbaa !22
  %.not60 = icmp eq ptr %5, null
  br i1 %.not60, label %62, label %57

57:                                               ; preds = %53
  %58 = tail call fastcc ptr @enc_privkey(ptr noundef %0, ptr noundef %5)
  %59 = load ptr, ptr %48, align 8, !tbaa !62
  %60 = getelementptr inbounds nuw i8, ptr %59, i64 8
  store ptr %58, ptr %60, align 8, !tbaa !70
  %61 = icmp eq ptr %58, null
  br i1 %61, label %83, label %62

62:                                               ; preds = %53, %57, %39
  %63 = getelementptr inbounds nuw i8, ptr %21, i64 8
  %64 = load ptr, ptr %63, align 8, !tbaa !71
  %65 = tail call i32 @OPENSSL_sk_push(ptr noundef %64, ptr noundef nonnull %28) #7
  %.not61 = icmp eq i32 %65, 0
  br i1 %.not61, label %83, label %66

66:                                               ; preds = %62
  %67 = icmp eq i32 %1, 1
  %68 = icmp ne ptr %8, null
  %or.cond5 = and i1 %67, %68
  br i1 %or.cond5, label %69, label %72

69:                                               ; preds = %66
  %70 = tail call ptr @X509_chain_up_ref(ptr noundef nonnull %8) #7
  store ptr %70, ptr %21, align 8, !tbaa !74
  %71 = icmp eq ptr %70, null
  br i1 %71, label %83, label %72

72:                                               ; preds = %69, %66
  %73 = tail call i32 @OPENSSL_sk_num(ptr noundef %7) #7
  %74 = icmp sgt i32 %73, 0
  br i1 %74, label %75, label %78

75:                                               ; preds = %72
  %76 = getelementptr inbounds nuw i8, ptr %15, i64 24
  %77 = tail call i32 @ossl_x509_add_certs_new(ptr noundef nonnull %76, ptr noundef %7, i32 noundef 5) #7
  %.not62 = icmp eq i32 %77, 0
  br i1 %.not62, label %83, label %78

78:                                               ; preds = %75, %72
  %.not63 = icmp eq i32 %9, 0
  br i1 %.not63, label %81, label %79

79:                                               ; preds = %78
  %80 = tail call i32 @ossl_cmp_pkisi_get_status(ptr noundef nonnull %3) #7
  %.not64 = icmp eq i32 %80, 2
  br i1 %.not64, label %85, label %81

81:                                               ; preds = %79, %78
  %82 = tail call i32 @ossl_cmp_msg_protect(ptr noundef nonnull %0, ptr noundef nonnull %15) #7
  %.not65 = icmp eq i32 %82, 0
  br i1 %.not65, label %83, label %85

83:                                               ; preds = %81, %75, %69, %62, %57, %50, %46, %30, %35, %27, %24, %14, %45
  %.0 = phi ptr [ null, %14 ], [ null, %27 ], [ %28, %30 ], [ %28, %45 ], [ %28, %46 ], [ %28, %57 ], [ null, %69 ], [ null, %81 ], [ null, %75 ], [ %28, %62 ], [ %28, %50 ], [ %28, %35 ], [ null, %24 ]
  tail call void @ERR_new() #7
  tail call void @ERR_set_debug(ptr noundef nonnull @.str, i32 noundef 571, ptr noundef nonnull @__func__.ossl_cmp_certrep_new) #7
  tail call void (i32, i32, ptr, ...) @ERR_set_error(i32 noundef 58, i32 noundef 117, ptr noundef null) #7
  tail call void @OSSL_CMP_CERTRESPONSE_free(ptr noundef %.0) #7
  %84 = tail call ptr @OSSL_CMP_MSG_it() #7
  tail call void @ASN1_item_free(ptr noundef %15, ptr noundef %84) #7
  br label %85

85:                                               ; preds = %79, %81, %10, %83
  %.047 = phi ptr [ null, %83 ], [ null, %10 ], [ %15, %81 ], [ %15, %79 ]
  ret ptr %.047
}